; Function Attrs: nounwind uwtable
define range(i32 0, 2) i32 @jsimd_can_h2v2_merged_upsample() local_unnamed_addr #0 {
  tail call fastcc void @init_simd()
  %1 = tail call align 4 ptr @llvm.threadlocal.address.p0(ptr align 4 @simd_support)
  %2 = load i32, ptr %1, align 4, !tbaa !3
  %3 = and i32 %2, 128
  %4 = icmp ne i32 %3, 0
  %5 = and i64 ptrtoint (ptr @jconst_merged_upsample_avx2 to i64), 28
  %6 = icmp eq i64 %5, 0
  %or.cond = and i1 %6, %4
  br i1 %or.cond, label %12, label %7

7:                                                ; preds = %0
  %8 = and i32 %2, 8
  %9 = icmp ne i32 %8, 0
  %10 = and i64 ptrtoint (ptr @jconst_merged_upsample_sse2 to i64), 12
  %11 = icmp eq i64 %10, 0
  %or.cond3 = and i1 %11, %9
  %. = zext i1 %or.cond3 to i32
  br label %12

12:                                               ; preds = %7, %0
  %.0 = phi i32 [ 1, %0 ], [ %., %7 ]
  ret i32 %.0
}